; Function Attrs: nounwind uwtable
define dso_local range(i32 -30, 1) i32 @archive_read_support_format_7zip(ptr noundef %0) local_unnamed_addr #0 {
  %2 = tail call i32 @__archive_check_magic(ptr noundef %0, i32 noundef 14594245, i32 noundef 1, ptr noundef nonnull @.str) #17
  %.not = icmp eq i32 %2, -30
  br i1 %.not, label %11, label %3

3:                                                ; preds = %1
  %4 = tail call noalias dereferenceable_or_null(20760) ptr @calloc(i64 noundef 1, i64 noundef 20760) #18
  %5 = icmp eq ptr %4, null
  br i1 %5, label %6, label %7

6:                                                ; preds = %3
  tail call void (ptr, i32, ptr, ...) @archive_set_error(ptr noundef %0, i32 noundef 12, ptr noundef nonnull @.str.1) #17
  br label %11

7:                                                ; preds = %3
  %8 = getelementptr inbounds nuw i8, ptr %4, i64 20752
  store i32 -1, ptr %8, align 8, !tbaa !4
  %9 = tail call i32 @__archive_read_register_format(ptr noundef %0, ptr noundef nonnull %4, ptr noundef nonnull @.str.2, ptr noundef nonnull @archive_read_format_7zip_bid, ptr noundef null, ptr noundef nonnull @archive_read_format_7zip_read_header, ptr noundef nonnull @archive_read_format_7zip_read_data, ptr noundef nonnull @archive_read_format_7zip_read_data_skip, ptr noundef null, ptr noundef nonnull @archive_read_format_7zip_cleanup, ptr noundef nonnull @archive_read_support_format_7zip_capabilities, ptr noundef nonnull @archive_read_format_7zip_has_encrypted_entries) #17
  %.not13 = icmp eq i32 %9, 0
  br i1 %.not13, label %11, label %10

10:                                               ; preds = %7
  tail call void @free(ptr noundef nonnull %4) #17
  br label %11

11:                                               ; preds = %7, %10, %1, %6
  %.1 = phi i32 [ -30, %6 ], [ -30, %1 ], [ 0, %10 ], [ 0, %7 ]
  ret i32 %.1
}